target datalayout = "e-m:e-p270:32:32-p271:32:32-p272:64:64-i64:64-i128:128-f80:128-n8:16:32:64-S128"
target triple = "x86_64-pc-linux-gnu"

%"struct.arrow::io::CacheOptions" = type { i64, i64, i8, i64 }
%"class.arrow::util::detail::NullLog" = type { i8 }

@.str = private unnamed_addr constant [17 x i8] c"TTFB must be > 0\00", align 1
@.str.1 = private unnamed_addr constant [31 x i8] c"Transfer bandwidth must be > 0\00", align 1
@.str.2 = private unnamed_addr constant [49 x i8] c"Ideal bandwidth utilization fraction must be > 0\00", align 1
@.str.3 = private unnamed_addr constant [49 x i8] c"Ideal bandwidth utilization fraction must be < 1\00", align 1
@.str.4 = private unnamed_addr constant [35 x i8] c"Max Ideal request size must be > 0\00", align 1
@.str.5 = private unnamed_addr constant [37 x i8] c"Computed hole_size_limit must be > 0\00", align 1
@.str.6 = private unnamed_addr constant [38 x i8] c"Computed range_size_limit must be > 0\00", align 1

; Function Attrs: mustprogress nounwind uwtable
define linkonce_odr noundef nonnull align 1 dereferenceable(1) ptr @_ZN5arrow4util6detail7NullLoglsIA38_cEERS2_RKT_(ptr noundef nonnull align 1 dereferenceable(1) %0, ptr noundef nonnull align 1 dereferenceable(38) %1) #0 comdat align 2 {
  %3 = alloca ptr, align 8
  %4 = alloca ptr, align 8
  store ptr %0, ptr %3, align 8, !tbaa !37
  store ptr %1, ptr %4, align 8, !tbaa !40
  %5 = load ptr, ptr %3, align 8
  ret ptr %5
}

; Function Attrs: inlinehint mustprogress nounwind uwtable
define linkonce_odr noundef nonnull align 8 dereferenceable(8) ptr @_ZSt3minIlERKT_S2_S2_(ptr noundef nonnull align 8 dereferenceable(8) %0, ptr noundef nonnull align 8 dereferenceable(8) %1) #4 comdat {
  %3 = alloca ptr, align 8
  %4 = alloca ptr, align 8
  %5 = alloca ptr, align 8
  store ptr %0, ptr %4, align 8, !tbaa !42
  store ptr %1, ptr %5, align 8, !tbaa !42
  %6 = load ptr, ptr %5, align 8, !tbaa !42
  %7 = load i64, ptr %6, align 8, !tbaa !12
  %8 = load ptr, ptr %4, align 8, !tbaa !42
  %9 = load i64, ptr %8, align 8, !tbaa !12
  %10 = icmp slt i64 %7, %9
  br i1 %10, label %11, label %13

11:                                               ; preds = %2
  %12 = load ptr, ptr %5, align 8, !tbaa !42
  store ptr %12, ptr %3, align 8
  br label %15

13:                                               ; preds = %2
  %14 = load ptr, ptr %4, align 8, !tbaa !42
  store ptr %14, ptr %3, align 8
  br label %15

15:                                               ; preds = %13, %11
  %16 = load ptr, ptr %3, align 8
  ret ptr %16
}

; Function Attrs: mustprogress nounwind uwtable
define linkonce_odr noundef nonnull align 1 dereferenceable(1) ptr @_ZN5arrow4util6detail7NullLoglsIA37_cEERS2_RKT_(ptr noundef nonnull align 1 dereferenceable(1) %0, ptr noundef nonnull align 1 dereferenceable(37) %1) #0 comdat align 2 {
  %3 = alloca ptr, align 8
  %4 = alloca ptr, align 8
  store ptr %0, ptr %3, align 8, !tbaa !37
  store ptr %1, ptr %4, align 8, !tbaa !40
  %5 = load ptr, ptr %3, align 8
  ret ptr %5
}

; Function Attrs: mustprogress nounwind uwtable
define linkonce_odr noundef nonnull align 1 dereferenceable(1) ptr @_ZN5arrow4util6detail7NullLoglsIA35_cEERS2_RKT_(ptr noundef nonnull align 1 dereferenceable(1) %0, ptr noundef nonnull align 1 dereferenceable(35) %1) #0 comdat align 2 {
  %3 = alloca ptr, align 8
  %4 = alloca ptr, align 8
  store ptr %0, ptr %3, align 8, !tbaa !37
  store ptr %1, ptr %4, align 8, !tbaa !40
  %5 = load ptr, ptr %3, align 8
  ret ptr %5
}

; Function Attrs: mustprogress nounwind uwtable
define linkonce_odr noundef nonnull align 1 dereferenceable(1) ptr @_ZN5arrow4util6detail7NullLoglsIA49_cEERS2_RKT_(ptr noundef nonnull align 1 dereferenceable(1) %0, ptr noundef nonnull align 1 dereferenceable(49) %1) #0 comdat align 2 {
  %3 = alloca ptr, align 8
  %4 = alloca ptr, align 8
  store ptr %0, ptr %3, align 8, !tbaa !37
  store ptr %1, ptr %4, align 8, !tbaa !40
  %5 = load ptr, ptr %3, align 8
  ret ptr %5
}

; Function Attrs: mustprogress nounwind uwtable
define linkonce_odr noundef nonnull align 1 dereferenceable(1) ptr @_ZN5arrow4util6detail7NullLoglsIA31_cEERS2_RKT_(ptr noundef nonnull align 1 dereferenceable(1) %0, ptr noundef nonnull align 1 dereferenceable(31) %1) #0 comdat align 2 {
  %3 = alloca ptr, align 8
  %4 = alloca ptr, align 8
  store ptr %0, ptr %3, align 8, !tbaa !37
  store ptr %1, ptr %4, align 8, !tbaa !40
  %5 = load ptr, ptr %3, align 8
  ret ptr %5
}

; Function Attrs: mustprogress nounwind uwtable
define linkonce_odr noundef nonnull align 1 dereferenceable(1) ptr @_ZN5arrow4util6detail7NullLoglsIA17_cEERS2_RKT_(ptr noundef nonnull align 1 dereferenceable(1) %0, ptr noundef nonnull align 1 dereferenceable(17) %1) #0 comdat align 2 {
  %3 = alloca ptr, align 8
  %4 = alloca ptr, align 8
  store ptr %0, ptr %3, align 8, !tbaa !37
  store ptr %1, ptr %4, align 8, !tbaa !40
  %5 = load ptr, ptr %3, align 8
  ret ptr %5
}

; Function Attrs: mustprogress uwtable
define void @_ZN5arrow2io12CacheOptions22MakeFromNetworkMetricsElldl(ptr dead_on_unwind noalias writable sret(%"struct.arrow::io::CacheOptions") align 8 %0, i64 noundef %1, i64 noundef %2, double noundef %3, i64 noundef %4) #1 align 2 {
  %6 = alloca i64, align 8
  %7 = alloca i64, align 8
  %8 = alloca double, align 8
  %9 = alloca i64, align 8
  %10 = alloca %"class.arrow::util::detail::NullLog", align 1
  %11 = alloca %"class.arrow::util::detail::NullLog", align 1
  %12 = alloca %"class.arrow::util::detail::NullLog", align 1
  %13 = alloca %"class.arrow::util::detail::NullLog", align 1
  %14 = alloca %"class.arrow::util::detail::NullLog", align 1
  %15 = alloca double, align 8
  %16 = alloca i64, align 8
  %17 = alloca i64, align 8
  %18 = alloca i64, align 8
  %19 = alloca %"class.arrow::util::detail::NullLog", align 1
  %20 = alloca i64, align 8
  %21 = alloca i64, align 8
  %22 = alloca %"class.arrow::util::detail::NullLog", align 1
  store i64 %1, ptr %6, align 8, !tbaa !12
  store i64 %2, ptr %7, align 8, !tbaa !12
  store double %3, ptr %8, align 8, !tbaa !13
  store i64 %4, ptr %9, align 8, !tbaa !12
  br label %23

23:                                               ; preds = %24, %5
  br i1 false, label %24, label %25

24:                                               ; preds = %23
  br label %23, !llvm.loop !15

25:                                               ; preds = %23
  br label %26

26:                                               ; preds = %27, %25
  br i1 false, label %27, label %28

27:                                               ; preds = %26
  br label %26, !llvm.loop !17

28:                                               ; preds = %26
  br label %29

29:                                               ; preds = %30, %28
  br i1 false, label %30, label %32

30:                                               ; preds = %29
  call void @llvm.lifetime.start.p0(i64 1, ptr %10) #20
  %31 = call noundef nonnull align 1 dereferenceable(1) ptr @_ZN5arrow4util6detail7NullLoglsIA17_cEERS2_RKT_(ptr noundef nonnull align 1 dereferenceable(1) %10, ptr noundef nonnull align 1 dereferenceable(17) @.str)
  call void @llvm.lifetime.end.p0(i64 1, ptr %10) #20
  br label %29, !llvm.loop !18

32:                                               ; preds = %29
  br label %33

33:                                               ; preds = %34, %32
  br i1 false, label %34, label %35

34:                                               ; preds = %33
  br label %33, !llvm.loop !19

35:                                               ; preds = %33
  br label %36

36:                                               ; preds = %37, %35
  br i1 false, label %37, label %38

37:                                               ; preds = %36
  br label %36, !llvm.loop !20

38:                                               ; preds = %36
  br label %39

39:                                               ; preds = %40, %38
  br i1 false, label %40, label %42

40:                                               ; preds = %39
  call void @llvm.lifetime.start.p0(i64 1, ptr %11) #20
  %41 = call noundef nonnull align 1 dereferenceable(1) ptr @_ZN5arrow4util6detail7NullLoglsIA31_cEERS2_RKT_(ptr noundef nonnull align 1 dereferenceable(1) %11, ptr noundef nonnull align 1 dereferenceable(31) @.str.1)
  call void @llvm.lifetime.end.p0(i64 1, ptr %11) #20
  br label %39, !llvm.loop !21

42:                                               ; preds = %39
  br label %43

43:                                               ; preds = %44, %42
  br i1 false, label %44, label %45

44:                                               ; preds = %43
  br label %43, !llvm.loop !22

45:                                               ; preds = %43
  br label %46

46:                                               ; preds = %47, %45
  br i1 false, label %47, label %48

47:                                               ; preds = %46
  br label %46, !llvm.loop !23

48:                                               ; preds = %46
  br label %49

49:                                               ; preds = %50, %48
  br i1 false, label %50, label %52

50:                                               ; preds = %49
  call void @llvm.lifetime.start.p0(i64 1, ptr %12) #20
  %51 = call noundef nonnull align 1 dereferenceable(1) ptr @_ZN5arrow4util6detail7NullLoglsIA49_cEERS2_RKT_(ptr noundef nonnull align 1 dereferenceable(1) %12, ptr noundef nonnull align 1 dereferenceable(49) @.str.2)
  call void @llvm.lifetime.end.p0(i64 1, ptr %12) #20
  br label %49, !llvm.loop !24

52:                                               ; preds = %49
  br label %53

53:                                               ; preds = %54, %52
  br i1 false, label %54, label %55

54:                                               ; preds = %53
  br label %53, !llvm.loop !25

55:                                               ; preds = %53
  br label %56

56:                                               ; preds = %57, %55
  br i1 false, label %57, label %58

57:                                               ; preds = %56
  br label %56, !llvm.loop !26

58:                                               ; preds = %56
  br label %59

59:                                               ; preds = %60, %58
  br i1 false, label %60, label %62

60:                                               ; preds = %59
  call void @llvm.lifetime.start.p0(i64 1, ptr %13) #20
  %61 = call noundef nonnull align 1 dereferenceable(1) ptr @_ZN5arrow4util6detail7NullLoglsIA49_cEERS2_RKT_(ptr noundef nonnull align 1 dereferenceable(1) %13, ptr noundef nonnull align 1 dereferenceable(49) @.str.3)
  call void @llvm.lifetime.end.p0(i64 1, ptr %13) #20
  br label %59, !llvm.loop !27

62:                                               ; preds = %59
  br label %63

63:                                               ; preds = %64, %62
  br i1 false, label %64, label %65

64:                                               ; preds = %63
  br label %63, !llvm.loop !28

65:                                               ; preds = %63
  br label %66

66:                                               ; preds = %67, %65
  br i1 false, label %67, label %68

67:                                               ; preds = %66
  br label %66, !llvm.loop !29

68:                                               ; preds = %66
  br label %69

69:                                               ; preds = %70, %68
  br i1 false, label %70, label %72

70:                                               ; preds = %69
  call void @llvm.lifetime.start.p0(i64 1, ptr %14) #20
  %71 = call noundef nonnull align 1 dereferenceable(1) ptr @_ZN5arrow4util6detail7NullLoglsIA35_cEERS2_RKT_(ptr noundef nonnull align 1 dereferenceable(1) %14, ptr noundef nonnull align 1 dereferenceable(35) @.str.4)
  call void @llvm.lifetime.end.p0(i64 1, ptr %14) #20
  br label %69, !llvm.loop !30

72:                                               ; preds = %69
  call void @llvm.lifetime.start.p0(i64 8, ptr %15) #20
  %73 = load i64, ptr %6, align 8, !tbaa !12
  %74 = sitofp i64 %73 to double
  %75 = fdiv double %74, 1.000000e+03
  store double %75, ptr %15, align 8, !tbaa !13
  call void @llvm.lifetime.start.p0(i64 8, ptr %16) #20
  %76 = load i64, ptr %7, align 8, !tbaa !12
  %77 = mul nsw i64 %76, 1024
  %78 = mul nsw i64 %77, 1024
  store i64 %78, ptr %16, align 8, !tbaa !12
  call void @llvm.lifetime.start.p0(i64 8, ptr %17) #20
  %79 = load i64, ptr %9, align 8, !tbaa !12
  %80 = mul nsw i64 %79, 1024
  %81 = mul nsw i64 %80, 1024
  store i64 %81, ptr %17, align 8, !tbaa !12
  call void @llvm.lifetime.start.p0(i64 8, ptr %18) #20
  %82 = load double, ptr %15, align 8, !tbaa !13
  %83 = load i64, ptr %16, align 8, !tbaa !12
  %84 = sitofp i64 %83 to double
  %85 = fmul double %82, %84
  %86 = call double @llvm.round.f64(double %85)
  %87 = fptosi double %86 to i64
  store i64 %87, ptr %18, align 8, !tbaa !12
  br label %88

88:                                               ; preds = %89, %72
  br i1 false, label %89, label %90

89:                                               ; preds = %88
  br label %88, !llvm.loop !31

90:                                               ; preds = %88
  br label %91

91:                                               ; preds = %92, %90
  br i1 false, label %92, label %93

92:                                               ; preds = %91
  br label %91, !llvm.loop !32

93:                                               ; preds = %91
  br label %94

94:                                               ; preds = %95, %93
  br i1 false, label %95, label %97

95:                                               ; preds = %94
  call void @llvm.lifetime.start.p0(i64 1, ptr %19) #20
  %96 = call noundef nonnull align 1 dereferenceable(1) ptr @_ZN5arrow4util6detail7NullLoglsIA37_cEERS2_RKT_(ptr noundef nonnull align 1 dereferenceable(1) %19, ptr noundef nonnull align 1 dereferenceable(37) @.str.5)
  call void @llvm.lifetime.end.p0(i64 1, ptr %19) #20
  br label %94, !llvm.loop !33

97:                                               ; preds = %94
  call void @llvm.lifetime.start.p0(i64 8, ptr %20) #20
  call void @llvm.lifetime.start.p0(i64 8, ptr %21) #20
  %98 = load i64, ptr %18, align 8, !tbaa !12
  %99 = sitofp i64 %98 to double
  %100 = load double, ptr %8, align 8, !tbaa !13
  %101 = fmul double %99, %100
  %102 = load double, ptr %8, align 8, !tbaa !13
  %103 = fsub double 1.000000e+00, %102
  %104 = fdiv double %101, %103
  %105 = call double @llvm.round.f64(double %104)
  %106 = fptosi double %105 to i64
  store i64 %106, ptr %21, align 8, !tbaa !12
  %107 = call noundef nonnull align 8 dereferenceable(8) ptr @_ZSt3minIlERKT_S2_S2_(ptr noundef nonnull align 8 dereferenceable(8) %17, ptr noundef nonnull align 8 dereferenceable(8) %21)
  %108 = load i64, ptr %107, align 8, !tbaa !12
  call void @llvm.lifetime.end.p0(i64 8, ptr %21) #20
  store i64 %108, ptr %20, align 8, !tbaa !12
  br label %109

109:                                              ; preds = %110, %97
  br i1 false, label %110, label %111

110:                                              ; preds = %109
  br label %109, !llvm.loop !34

111:                                              ; preds = %109
  br label %112

112:                                              ; preds = %113, %111
  br i1 false, label %113, label %114

113:                                              ; preds = %112
  br label %112, !llvm.loop !35

114:                                              ; preds = %112
  br label %115

115:                                              ; preds = %116, %114
  br i1 false, label %116, label %118

116:                                              ; preds = %115
  call void @llvm.lifetime.start.p0(i64 1, ptr %22) #20
  %117 = call noundef nonnull align 1 dereferenceable(1) ptr @_ZN5arrow4util6detail7NullLoglsIA38_cEERS2_RKT_(ptr noundef nonnull align 1 dereferenceable(1) %22, ptr noundef nonnull align 1 dereferenceable(38) @.str.6)
  call void @llvm.lifetime.end.p0(i64 1, ptr %22) #20
  br label %115, !llvm.loop !36

118:                                              ; preds = %115
  %119 = getelementptr inbounds nuw %"struct.arrow::io::CacheOptions", ptr %0, i32 0, i32 0
  %120 = load i64, ptr %18, align 8, !tbaa !12
  store i64 %120, ptr %119, align 8, !tbaa !3
  %121 = getelementptr inbounds nuw %"struct.arrow::io::CacheOptions", ptr %0, i32 0, i32 1
  %122 = load i64, ptr %20, align 8, !tbaa !12
  store i64 %122, ptr %121, align 8, !tbaa !9
  %123 = getelementptr inbounds nuw %"struct.arrow::io::CacheOptions", ptr %0, i32 0, i32 2
  store i8 0, ptr %123, align 8, !tbaa !10
  %124 = getelementptr inbounds nuw %"struct.arrow::io::CacheOptions", ptr %0, i32 0, i32 3
  store i64 0, ptr %124, align 8, !tbaa !11
  call void @llvm.lifetime.end.p0(i64 8, ptr %20) #20
  call void @llvm.lifetime.end.p0(i64 8, ptr %18) #20
  call void @llvm.lifetime.end.p0(i64 8, ptr %17) #20
  call void @llvm.lifetime.end.p0(i64 8, ptr %16) #20
  call void @llvm.lifetime.end.p0(i64 8, ptr %15) #20
  ret void
}