; Function Attrs: mustprogress nofree norecurse nosync nounwind willreturn memory(argmem: write) uwtable
define void @_ZN5arrow2io12CacheOptions22MakeFromNetworkMetricsElldl(ptr dead_on_unwind noalias writable writeonly sret(%"struct.arrow::io::CacheOptions") align 8 captures(none) initializes((0, 17), (24, 32)) %0, i64 noundef %1, i64 noundef %2, double noundef %3, i64 noundef %4) local_unnamed_addr #0 align 2 {
  %6 = sitofp i64 %1 to double
  %7 = fdiv double %6, 1.000000e+03
  %8 = shl nsw i64 %2, 20
  %9 = shl nsw i64 %4, 20
  %10 = sitofp i64 %8 to double
  %11 = fmul double %7, %10
  %12 = tail call double @llvm.round.f64(double %11)
  %13 = fptosi double %12 to i64
  %14 = sitofp i64 %13 to double
  %15 = fmul double %3, %14
  %16 = fsub double 1.000000e+00, %3
  %17 = fdiv double %15, %16
  %18 = tail call double @llvm.round.f64(double %17)
  %19 = fptosi double %18 to i64
  %.sroa.speculated = tail call i64 @llvm.smin.i64(i64 %9, i64 %19)
  store i64 %13, ptr %0, align 8, !tbaa !3
  %20 = getelementptr inbounds nuw i8, ptr %0, i64 8
  store i64 %.sroa.speculated, ptr %20, align 8, !tbaa !9
  %21 = getelementptr inbounds nuw i8, ptr %0, i64 16
  store i8 0, ptr %21, align 8, !tbaa !10
  %22 = getelementptr inbounds nuw i8, ptr %0, i64 24
  store i64 0, ptr %22, align 8, !tbaa !11
  ret void
}